; Function Attrs: mustprogress nounwind uwtable
define hidden noundef ptr @_ZN10ciTypeFlow15make_jsr_recordEii(ptr nocapture noundef nonnull align 8 dereferenceable(88) %0, i32 noundef %1, i32 noundef %2) local_unnamed_addr #0 align 2 {
  %4 = getelementptr inbounds i8, ptr %0, i64 80
  %5 = load ptr, ptr %4, align 8
  %6 = icmp eq ptr %5, null
  br i1 %6, label %7, label %18

7:                                                ; preds = %3
  %8 = load ptr, ptr %0, align 8
  %9 = load ptr, ptr %8, align 8
  %10 = tail call noundef ptr @_ZN6AnyObjnwEmP5Arena(i64 noundef 24, ptr noundef %9) #14
  %11 = load ptr, ptr %0, align 8
  %12 = load ptr, ptr %11, align 8
  %13 = tail call noundef ptr @_ZN27GrowableArrayArenaAllocator8allocateEiiP5Arena(i32 noundef 2, i32 noundef 8, ptr noundef %12) #14
  store i32 0, ptr %10, align 4
  %14 = getelementptr inbounds i8, ptr %10, i64 4
  store i32 2, ptr %14, align 4
  %15 = getelementptr inbounds i8, ptr %10, i64 8
  store ptr %13, ptr %15, align 8
  tail call void @llvm.memset.p0.i64(ptr noundef nonnull align 8 dereferenceable(16) %13, i8 0, i64 16, i1 false)
  %16 = getelementptr inbounds i8, ptr %10, i64 16
  %17 = ptrtoint ptr %12 to i64
  store i64 %17, ptr %16, align 8
  store ptr %10, ptr %4, align 8
  br label %18

18:                                               ; preds = %7, %3
  %19 = phi ptr [ %10, %7 ], [ %5, %3 ]
  %20 = load i32, ptr %19, align 4
  %21 = icmp sgt i32 %20, 0
  br i1 %21, label %.lr.ph, label %._crit_edge

.lr.ph:                                           ; preds = %18
  %22 = getelementptr inbounds i8, ptr %19, i64 8
  %23 = load ptr, ptr %22, align 8
  %wide.trip.count = zext nneg i32 %20 to i64
  br label %24

24:                                               ; preds = %.lr.ph, %33
  %indvars.iv = phi i64 [ 0, %.lr.ph ], [ %indvars.iv.next, %33 ]
  %25 = getelementptr inbounds ptr, ptr %23, i64 %indvars.iv
  %26 = load ptr, ptr %25, align 8
  %27 = load i32, ptr %26, align 4
  %28 = icmp eq i32 %27, %1
  br i1 %28, label %29, label %33

29:                                               ; preds = %24
  %30 = getelementptr inbounds i8, ptr %26, i64 4
  %31 = load i32, ptr %30, align 4
  %32 = icmp eq i32 %31, %2
  br i1 %32, label %.loopexit, label %33

33:                                               ; preds = %24, %29
  %indvars.iv.next = add nuw nsw i64 %indvars.iv, 1
  %exitcond.not = icmp eq i64 %indvars.iv.next, %wide.trip.count
  br i1 %exitcond.not, label %._crit_edge, label %24, !llvm.loop !13

._crit_edge:                                      ; preds = %33, %18
  %34 = load ptr, ptr %0, align 8
  %35 = load ptr, ptr %34, align 8
  %36 = tail call noundef ptr @_ZN8ArenaObjnwEmP5Arena(i64 noundef 8, ptr noundef %35) #14
  %37 = icmp eq ptr %36, null
  br i1 %37, label %40, label %38

38:                                               ; preds = %._crit_edge
  store i32 %1, ptr %36, align 4
  %39 = getelementptr inbounds i8, ptr %36, i64 4
  store i32 %2, ptr %39, align 4
  br label %40

40:                                               ; preds = %38, %._crit_edge
  %41 = load ptr, ptr %4, align 8
  %42 = load i32, ptr %41, align 8
  %43 = getelementptr inbounds i8, ptr %41, i64 4
  %44 = load i32, ptr %43, align 4
  %45 = icmp eq i32 %42, %44
  br i1 %45, label %46, label %_ZN26GrowableArrayWithAllocatorIPN10ciTypeFlow9JsrRecordE13GrowableArrayIS2_EE6appendERKS2_.exit

46:                                               ; preds = %40
  %47 = add nsw i32 %42, 1
  %48 = icmp sgt i32 %42, -1
  %49 = xor i32 %42, -2147483648
  %50 = and i32 %49, %47
  %51 = icmp eq i32 %50, 0
  %52 = and i1 %48, %51
  %53 = tail call range(i32 0, 33) i32 @llvm.ctlz.i32(i32 %47, i1 true)
  %54 = sub nuw nsw i32 32, %53
  %55 = shl nuw i32 1, %54
  %.0.i.i.i.i = select i1 %52, i32 %47, i32 %55
  tail call void @_ZN26GrowableArrayWithAllocatorIPN10ciTypeFlow9JsrRecordE13GrowableArrayIS2_EE9expand_toEi(ptr noundef nonnull align 8 dereferenceable(16) %41, i32 noundef %.0.i.i.i.i)
  %.pre.i = load i32, ptr %41, align 8
  br label %_ZN26GrowableArrayWithAllocatorIPN10ciTypeFlow9JsrRecordE13GrowableArrayIS2_EE6appendERKS2_.exit

_ZN26GrowableArrayWithAllocatorIPN10ciTypeFlow9JsrRecordE13GrowableArrayIS2_EE6appendERKS2_.exit: ; preds = %40, %46
  %56 = phi i32 [ %.pre.i, %46 ], [ %42, %40 ]
  %57 = add nsw i32 %56, 1
  store i32 %57, ptr %41, align 8
  %58 = getelementptr inbounds i8, ptr %41, i64 8
  %59 = load ptr, ptr %58, align 8
  %60 = sext i32 %56 to i64
  %61 = getelementptr inbounds ptr, ptr %59, i64 %60
  store ptr %36, ptr %61, align 8
  br label %.loopexit

.loopexit:                                        ; preds = %29, %_ZN26GrowableArrayWithAllocatorIPN10ciTypeFlow9JsrRecordE13GrowableArrayIS2_EE6appendERKS2_.exit
  %.0 = phi ptr [ %36, %_ZN26GrowableArrayWithAllocatorIPN10ciTypeFlow9JsrRecordE13GrowableArrayIS2_EE6appendERKS2_.exit ], [ %26, %29 ]
  ret ptr %.0
}